; Function Attrs: nounwind uwtable
define range(i32 0, 2) i32 @luckyCheck(ptr noundef %0, ptr noundef readonly captures(none) %1, i32 noundef %2, ptr noundef captures(none) %3, i32 noundef %4) local_unnamed_addr #0 {
  %6 = icmp sgt i32 %2, 0
  br i1 %6, label %.preheader.preheader, label %._crit_edge

.preheader.preheader:                             ; preds = %5
  %wide.trip.count37 = zext nneg i32 %2 to i64
  br label %.preheader

.preheader:                                       ; preds = %.preheader.preheader, %swapAndFlip.exit
  %indvars.iv = phi i64 [ 0, %.preheader.preheader ], [ %indvars.iv.next, %swapAndFlip.exit ]
  %.029 = phi i32 [ %4, %.preheader.preheader ], [ %.1, %swapAndFlip.exit ]
  %7 = trunc nuw nsw i64 %indvars.iv to i32
  %8 = shl i32 %7, 24
  %sext = add i32 %8, 1627389952
  %9 = ashr exact i32 %sext, 24
  br label %10

10:                                               ; preds = %.preheader, %33
  %indvars.iv32 = phi i64 [ %indvars.iv, %.preheader ], [ %indvars.iv.next33, %33 ]
  %11 = getelementptr inbounds nuw i8, ptr %3, i64 %indvars.iv32
  %12 = load i8, ptr %11, align 1, !tbaa !3
  %13 = sext i8 %12 to i32
  %.not25 = icmp eq i32 %9, %13
  br i1 %.not25, label %14, label %33

14:                                               ; preds = %10
  %15 = trunc nuw nsw i64 %indvars.iv32 to i32
  tail call void @swap_ij(ptr noundef %0, i32 noundef %2, i32 noundef %7, i32 noundef %15) #9
  %16 = getelementptr inbounds nuw i8, ptr %3, i64 %indvars.iv
  %17 = load i8, ptr %16, align 1, !tbaa !3
  %18 = and i64 %indvars.iv32, 4294967295
  %19 = getelementptr inbounds nuw i8, ptr %3, i64 %18
  %20 = load i8, ptr %19, align 1, !tbaa !3
  store i8 %20, ptr %16, align 1, !tbaa !3
  store i8 %17, ptr %19, align 1, !tbaa !3
  %21 = lshr i32 %.029, %7
  %22 = lshr i32 %.029, %15
  %23 = xor i32 %22, %21
  %24 = and i32 %23, 1
  %.not.i = icmp eq i32 %24, 0
  br i1 %.not.i, label %._crit_edge.i, label %25

._crit_edge.i:                                    ; preds = %14
  %.pre.i = shl nuw i32 1, %7
  br label %30

25:                                               ; preds = %14
  %26 = shl nuw i32 1, %15
  %27 = shl nuw i32 1, %7
  %28 = xor i32 %.029, %26
  %29 = xor i32 %28, %27
  br label %30

30:                                               ; preds = %25, %._crit_edge.i
  %.2 = phi i32 [ %.029, %._crit_edge.i ], [ %29, %25 ]
  %.pre-phi.i = phi i32 [ %.pre.i, %._crit_edge.i ], [ %27, %25 ]
  %31 = and i32 %.pre-phi.i, %.2
  %.not25.i = icmp eq i32 %31, 0
  br i1 %.not25.i, label %swapAndFlip.exit, label %32

32:                                               ; preds = %30
  tail call void @Kit_TruthChangePhase_64bit(ptr noundef %0, i32 noundef %2, i32 noundef %7) #9
  br label %swapAndFlip.exit

33:                                               ; preds = %10
  %indvars.iv.next33 = add nuw nsw i64 %indvars.iv32, 1
  %exitcond.not = icmp eq i64 %indvars.iv.next33, %wide.trip.count37
  br i1 %exitcond.not, label %swapAndFlip.exit, label %10, !llvm.loop !8

swapAndFlip.exit:                                 ; preds = %33, %32, %30
  %.1 = phi i32 [ %.2, %30 ], [ %.2, %32 ], [ %.029, %33 ]
  %indvars.iv.next = add nuw nsw i64 %indvars.iv, 1
  %exitcond38.not = icmp eq i64 %indvars.iv.next, %wide.trip.count37
  br i1 %exitcond38.not, label %._crit_edge, label %.preheader, !llvm.loop !10

._crit_edge:                                      ; preds = %swapAndFlip.exit, %5
  %.0.lcssa = phi i32 [ %4, %5 ], [ %.1, %swapAndFlip.exit ]
  %34 = shl nuw i32 1, %2
  %35 = and i32 %.0.lcssa, %34
  %.not = icmp eq i32 %35, 0
  br i1 %.not, label %37, label %36

36:                                               ; preds = %._crit_edge
  tail call void @Kit_TruthNot_64bit(ptr noundef %0, i32 noundef %2) #9
  br label %37

37:                                               ; preds = %36, %._crit_edge
  %38 = tail call i32 @Kit_TruthWordNum_64bit(i32 noundef %2) #9
  %39 = sext i32 %38 to i64
  %40 = shl nsw i64 %39, 3
  %bcmp = tail call i32 @bcmp(ptr %0, ptr %1, i64 %40)
  %41 = icmp ne i32 %bcmp, 0
  %. = zext i1 %41 to i32
  ret i32 %.
}